(lp0
S'poi'
p1
aS'salary'
p2
aS'loan_advances'
p3
aS'bonus'
p4
aS'deferred_income'
p5
aS'exercised_stock_options'
p6
aS'long_term_incentive'
p7
aS'restricted_stock'
p8
aS'from_poi_to_this_person'
p9
aS'shared_receipt_with_poi'
p10
aS'to_poi_ratio'
p11
aS'total_exp_wealth'
p12
a.